(dp0
S'server'
p1
(dp2
S'shadowworld'
p3
(dp4
S'ops'
p5
(lp6
S'dr-spangle'
p7
aS'ari'
p8
aS'icebreaker'
p9
aS'albie'
p10
aS'd000242'
p11
asS'gods'
p12
(lp13
S'dr-spangle'
p14
ag11
asS'pass'
p15
S'lightside'
p16
sS'channels'
p17
(lp18
S'#ecco-the-dolphin'
p19
aS'#beringsea'
p20
aS'#hallotest'
p21
asS'nick'
p22
S'Hallo9000'
p23
sS'full_name'
p24
S'HalloBot HalloHost HalloServer :an irc bot by spangle'
p25
sS'address'
p26
S'irc.shadowworld.net'
p27
sS'port'
p28
I6667
sS'channel'
p29
(dp30
S'#hallotest'
p31
(dp32
S'megahal_record'
p33
I00
sS'logging'
p34
I01
sS'sweardetect'
p35
I00
sS'caps'
p36
I00
ssS'#beringsea'
p37
(dp38
g33
I00
sg34
I01
sg35
I01
sg36
I01
ssS'#ecco-the-dolphin'
p39
(dp40
g33
I00
sg34
I00
sg35
I00
sg36
I01
sssssS'servers'
p41
(lp42
g3
as.