(dp0
S'servers'
p1
(lp2
S'shadowworld'
p3
aS'canternet'
p4
asS'server'
p5
(dp6
g4
(dp7
S'ops'
p8
(lp9
S'dr-spangle'
p10
aS'servirare'
p11
aS'sharpy'
p12
aS'urioxis'
p13
aS'servirare_'
p14
aS'deer-spangle'
p15
asS'gods'
p16
(lp17
S'dr-spangle'
p18
aS'deer-spangle'
p19
asS'pass'
p20
I00
sS'channels'
p21
(lp22
S'#ukofequestria'
p23
asS'nick'
p24
S'Pony_47749'
p25
sS'full_name'
p26
S'HalloBot HalloHost HalloServer :an irc bot by spangle'
p27
sS'address'
p28
S'irc.canternet.org'
p29
sS'port'
p30
I6667
sS'channel'
p31
(dp32
g23
(dp33
S'megahal_record'
p34
I00
sS'logging'
p35
I01
sS'sweardetect'
p36
I00
sS'caps'
p37
I00
ssssg3
(dp38
S'ops'
p39
g9
sS'gods'
p40
g17
sS'address'
p41
S'irc.shadowworld.net'
p42
sS'channels'
p43
(lp44
S'#ecco-the-dolphin'
p45
aS'#beringsea'
p46
aS'#hallotest'
p47
asS'nick'
p48
S'Hallo9000'
p49
sS'full_name'
p50
g27
sS'pass'
p51
S'lightside'
p52
sS'port'
p53
I6667
sS'channel'
p54
(dp55
S'#ecco-the-dolphin'
p56
(dp57
S'megahal_record'
p58
I00
sS'logging'
p59
I00
sS'sweardetect'
p60
I00
sS'caps'
p61
I01
ssS'#beringsea'
p62
(dp63
g58
I00
sg59
I01
sg60
I01
sg61
I01
ssS'#hallotest'
p64
(dp65
g58
I00
sg59
I01
sg60
I00
sg61
I00
sssss.